target datalayout = "e-m:e-p270:32:32-p271:32:32-p272:64:64-i64:64-i128:128-f80:128-n8:16:32:64-S128"
target triple = "x86_64-pc-linux-gnu"

%struct.archive_write = type { %struct.archive, i32, i64, i64, ptr, i64, ptr, ptr, ptr, ptr, ptr, i32, i32, ptr, ptr, ptr, ptr, ptr, ptr, ptr, ptr, ptr, ptr, ptr, ptr, ptr, ptr }
%struct.archive = type { i32, i32, ptr, i32, ptr, i32, i32, ptr, %struct.archive_string, ptr, i32, i32, ptr, ptr, i64, i64, i64, i8, i64 }
%struct.archive_string = type { ptr, i64, i64 }
%struct.iso9660 = type { i64, i32, ptr, ptr, %struct.archive_string, i64, i32, %struct.archive_string, %struct.archive_string, ptr, ptr, %struct.anon, %struct.anon.0, %struct.archive_rb_tree, %struct.vdd, %struct.vdd, i32, i32, i32, %struct.archive_string, %struct.archive_string, %struct.archive_string, %struct.archive_string, %struct.archive_string, %struct.archive_string, %struct.archive_string, i32, %struct.anon.1, ptr, i32, [65536 x i8], i64, i32, i64, i64, i64, %struct.anon.2, %struct.iso_option }
%struct.anon = type { ptr, ptr }
%struct.anon.0 = type { ptr, ptr }
%struct.archive_rb_tree = type { ptr, ptr }
%struct.vdd = type { ptr, i32, ptr, i32, i32, i32, i32, i32, i32 }
%struct.anon.1 = type { i8, [64 x i8], i32, ptr, i64, i32, i32, i64, i64, %struct.z_stream_s, i32, i64, i32 }
%struct.z_stream_s = type { ptr, i32, i64, ptr, i32, i64, ptr, ptr, ptr, ptr, ptr, i32, i64, i64 }
%struct.anon.2 = type { %struct.archive_string, ptr, %struct.archive_string, ptr, i8, %struct.archive_string, i8, i8, i16, i16 }
%struct.iso_option = type { i32 }
%struct.isofile = type { ptr, ptr, ptr, ptr, ptr, %struct.archive_string, %struct.archive_string, %struct.archive_string, %struct.archive_string, i32, %struct.content, ptr, i32, i32, %struct.anon.7 }
%struct.content = type { i64, i64, i32, i32, ptr }
%struct.anon.7 = type { i8, i8, i32 }

@.str.46 = private unnamed_addr constant [31 x i8] c"Couldn't create temporary file\00", align 1
@.str.59 = private unnamed_addr constant [28 x i8] c"Can't allocate content data\00", align 1

; Function Attrs: nounwind uwtable
define internal i32 @wb_write_padding_to_temp(ptr noundef %0, i64 noundef %1) #0 {
  %3 = alloca ptr, align 8
  %4 = alloca i64, align 8
  %5 = alloca i64, align 8
  %6 = alloca i32, align 4
  store ptr %0, ptr %3, align 8, !tbaa !9
  store i64 %1, ptr %4, align 8, !tbaa !154
  call void @llvm.lifetime.start.p0(i64 8, ptr %5) #13
  call void @llvm.lifetime.start.p0(i64 4, ptr %6) #13
  %7 = load i64, ptr %4, align 8, !tbaa !154
  %8 = srem i64 %7, 2048
  store i64 %8, ptr %5, align 8, !tbaa !154
  %9 = load i64, ptr %5, align 8, !tbaa !154
  %10 = icmp ne i64 %9, 0
  br i1 %10, label %11, label %16

11:                                               ; preds = %2
  %12 = load ptr, ptr %3, align 8, !tbaa !9
  %13 = load i64, ptr %5, align 8, !tbaa !154
  %14 = sub i64 2048, %13
  %15 = call i32 @write_null(ptr noundef %12, i64 noundef %14)
  store i32 %15, ptr %6, align 4, !tbaa !11
  br label %17

16:                                               ; preds = %2
  store i32 0, ptr %6, align 4, !tbaa !11
  br label %17

17:                                               ; preds = %16, %11
  %18 = load i32, ptr %6, align 4, !tbaa !11
  call void @llvm.lifetime.end.p0(i64 4, ptr %6) #13
  call void @llvm.lifetime.end.p0(i64 8, ptr %5) #13
  ret i32 %18
}

; Function Attrs: nounwind uwtable
define internal i64 @write_iso9660_data(ptr noundef %0, ptr noundef %1, i64 noundef %2) #0 {
  %4 = alloca i64, align 8
  %5 = alloca ptr, align 8
  %6 = alloca ptr, align 8
  %7 = alloca i64, align 8
  %8 = alloca ptr, align 8
  %9 = alloca i64, align 8
  %10 = alloca i32, align 4
  %11 = alloca ptr, align 8
  %12 = alloca i64, align 8
  store ptr %0, ptr %5, align 8, !tbaa !9
  store ptr %1, ptr %6, align 8, !tbaa !153
  store i64 %2, ptr %7, align 8, !tbaa !154
  call void @llvm.lifetime.start.p0(i64 8, ptr %8) #13
  %13 = load ptr, ptr %5, align 8, !tbaa !9
  %14 = getelementptr inbounds nuw %struct.archive_write, ptr %13, i32 0, i32 15
  %15 = load ptr, ptr %14, align 8, !tbaa !120
  store ptr %15, ptr %8, align 8, !tbaa !22
  call void @llvm.lifetime.start.p0(i64 8, ptr %9) #13
  %16 = load ptr, ptr %8, align 8, !tbaa !22
  %17 = getelementptr inbounds nuw %struct.iso9660, ptr %16, i32 0, i32 1
  %18 = load i32, ptr %17, align 8, !tbaa !42
  %19 = icmp slt i32 %18, 0
  br i1 %19, label %20, label %23

20:                                               ; preds = %3
  %21 = load ptr, ptr %5, align 8, !tbaa !9
  %22 = getelementptr inbounds nuw %struct.archive_write, ptr %21, i32 0, i32 0
  call void (ptr, i32, ptr, ...) @archive_set_error(ptr noundef %22, i32 noundef -1, ptr noundef @.str.46)
  store i64 -30, ptr %4, align 8
  store i32 1, ptr %10, align 4
  br label %213

23:                                               ; preds = %3
  %24 = load i64, ptr %7, align 8, !tbaa !154
  store i64 %24, ptr %9, align 8, !tbaa !154
  %25 = load ptr, ptr %8, align 8, !tbaa !22
  %26 = getelementptr inbounds nuw %struct.iso9660, ptr %25, i32 0, i32 6
  %27 = load i32, ptr %26, align 8, !tbaa !146
  %28 = icmp ne i32 %27, 0
  br i1 %28, label %29, label %167

29:                                               ; preds = %23
  %30 = load ptr, ptr %8, align 8, !tbaa !22
  %31 = getelementptr inbounds nuw %struct.iso9660, ptr %30, i32 0, i32 2
  %32 = load ptr, ptr %31, align 8, !tbaa !43
  %33 = getelementptr inbounds nuw %struct.isofile, ptr %32, i32 0, i32 11
  %34 = load ptr, ptr %33, align 8, !tbaa !152
  %35 = getelementptr inbounds nuw %struct.content, ptr %34, i32 0, i32 1
  %36 = load i64, ptr %35, align 8, !tbaa !159
  %37 = load i64, ptr %9, align 8, !tbaa !154
  %38 = add i64 %36, %37
  %39 = icmp uge i64 %38, 4294965248
  br i1 %39, label %40, label %167

40:                                               ; preds = %29
  call void @llvm.lifetime.start.p0(i64 8, ptr %11) #13
  call void @llvm.lifetime.start.p0(i64 8, ptr %12) #13
  %41 = load ptr, ptr %8, align 8, !tbaa !22
  %42 = getelementptr inbounds nuw %struct.iso9660, ptr %41, i32 0, i32 2
  %43 = load ptr, ptr %42, align 8, !tbaa !43
  %44 = getelementptr inbounds nuw %struct.isofile, ptr %43, i32 0, i32 11
  %45 = load ptr, ptr %44, align 8, !tbaa !152
  %46 = getelementptr inbounds nuw %struct.content, ptr %45, i32 0, i32 1
  %47 = load i64, ptr %46, align 8, !tbaa !159
  %48 = sub nsw i64 4294965248, %47
  store i64 %48, ptr %12, align 8, !tbaa !154
  %49 = load ptr, ptr %8, align 8, !tbaa !22
  %50 = getelementptr inbounds nuw %struct.iso9660, ptr %49, i32 0, i32 27
  %51 = load i8, ptr %50, align 8
  %52 = and i8 %51, 1
  %53 = zext i8 %52 to i32
  %54 = icmp ne i32 %53, 0
  br i1 %54, label %55, label %59

55:                                               ; preds = %40
  %56 = load ptr, ptr %5, align 8, !tbaa !9
  %57 = load ptr, ptr %6, align 8, !tbaa !153
  %58 = load i64, ptr %12, align 8, !tbaa !154
  call void @zisofs_detect_magic(ptr noundef %56, ptr noundef %57, i64 noundef %58)
  br label %59

59:                                               ; preds = %55, %40
  %60 = load ptr, ptr %8, align 8, !tbaa !22
  %61 = getelementptr inbounds nuw %struct.iso9660, ptr %60, i32 0, i32 27
  %62 = load i8, ptr %61, align 8
  %63 = lshr i8 %62, 1
  %64 = and i8 %63, 1
  %65 = zext i8 %64 to i32
  %66 = icmp ne i32 %65, 0
  br i1 %66, label %67, label %75

67:                                               ; preds = %59
  %68 = load ptr, ptr %5, align 8, !tbaa !9
  %69 = load ptr, ptr %6, align 8, !tbaa !153
  %70 = load i64, ptr %12, align 8, !tbaa !154
  %71 = call i32 @zisofs_write_to_temp(ptr noundef %68, ptr noundef %69, i64 noundef %70)
  %72 = icmp ne i32 %71, 0
  br i1 %72, label %73, label %74

73:                                               ; preds = %67
  store i64 -30, ptr %4, align 8
  store i32 1, ptr %10, align 4
  br label %164

74:                                               ; preds = %67
  br label %92

75:                                               ; preds = %59
  %76 = load ptr, ptr %5, align 8, !tbaa !9
  %77 = load ptr, ptr %6, align 8, !tbaa !153
  %78 = load i64, ptr %12, align 8, !tbaa !154
  %79 = call i32 @wb_write_to_temp(ptr noundef %76, ptr noundef %77, i64 noundef %78)
  %80 = icmp ne i32 %79, 0
  br i1 %80, label %81, label %82

81:                                               ; preds = %75
  store i64 -30, ptr %4, align 8
  store i32 1, ptr %10, align 4
  br label %164

82:                                               ; preds = %75
  %83 = load i64, ptr %12, align 8, !tbaa !154
  %84 = load ptr, ptr %8, align 8, !tbaa !22
  %85 = getelementptr inbounds nuw %struct.iso9660, ptr %84, i32 0, i32 2
  %86 = load ptr, ptr %85, align 8, !tbaa !43
  %87 = getelementptr inbounds nuw %struct.isofile, ptr %86, i32 0, i32 11
  %88 = load ptr, ptr %87, align 8, !tbaa !152
  %89 = getelementptr inbounds nuw %struct.content, ptr %88, i32 0, i32 1
  %90 = load i64, ptr %89, align 8, !tbaa !159
  %91 = add i64 %90, %83
  store i64 %91, ptr %89, align 8, !tbaa !159
  br label %92

92:                                               ; preds = %82, %74
  %93 = load ptr, ptr %5, align 8, !tbaa !9
  %94 = load ptr, ptr %8, align 8, !tbaa !22
  %95 = getelementptr inbounds nuw %struct.iso9660, ptr %94, i32 0, i32 2
  %96 = load ptr, ptr %95, align 8, !tbaa !43
  %97 = getelementptr inbounds nuw %struct.isofile, ptr %96, i32 0, i32 11
  %98 = load ptr, ptr %97, align 8, !tbaa !152
  %99 = getelementptr inbounds nuw %struct.content, ptr %98, i32 0, i32 1
  %100 = load i64, ptr %99, align 8, !tbaa !159
  %101 = call i32 @wb_write_padding_to_temp(ptr noundef %93, i64 noundef %100)
  %102 = icmp ne i32 %101, 0
  br i1 %102, label %103, label %104

103:                                              ; preds = %92
  store i64 -30, ptr %4, align 8
  store i32 1, ptr %10, align 4
  br label %164

104:                                              ; preds = %92
  %105 = load ptr, ptr %8, align 8, !tbaa !22
  %106 = getelementptr inbounds nuw %struct.iso9660, ptr %105, i32 0, i32 2
  %107 = load ptr, ptr %106, align 8, !tbaa !43
  %108 = getelementptr inbounds nuw %struct.isofile, ptr %107, i32 0, i32 11
  %109 = load ptr, ptr %108, align 8, !tbaa !152
  %110 = getelementptr inbounds nuw %struct.content, ptr %109, i32 0, i32 1
  %111 = load i64, ptr %110, align 8, !tbaa !159
  %112 = add nsw i64 %111, 2048
  %113 = sub nsw i64 %112, 1
  %114 = ashr i64 %113, 11
  %115 = trunc i64 %114 to i32
  %116 = load ptr, ptr %8, align 8, !tbaa !22
  %117 = getelementptr inbounds nuw %struct.iso9660, ptr %116, i32 0, i32 2
  %118 = load ptr, ptr %117, align 8, !tbaa !43
  %119 = getelementptr inbounds nuw %struct.isofile, ptr %118, i32 0, i32 11
  %120 = load ptr, ptr %119, align 8, !tbaa !152
  %121 = getelementptr inbounds nuw %struct.content, ptr %120, i32 0, i32 2
  store i32 %115, ptr %121, align 8, !tbaa !160
  %122 = load i64, ptr %12, align 8, !tbaa !154
  %123 = load i64, ptr %9, align 8, !tbaa !154
  %124 = sub i64 %123, %122
  store i64 %124, ptr %9, align 8, !tbaa !154
  %125 = load ptr, ptr %6, align 8, !tbaa !153
  %126 = load i64, ptr %12, align 8, !tbaa !154
  %127 = getelementptr inbounds nuw i8, ptr %125, i64 %126
  store ptr %127, ptr %6, align 8, !tbaa !153
  %128 = call noalias ptr @calloc(i64 noundef 1, i64 noundef 32) #14
  store ptr %128, ptr %11, align 8, !tbaa !200
  %129 = load ptr, ptr %11, align 8, !tbaa !200
  %130 = icmp eq ptr %129, null
  br i1 %130, label %131, label %134

131:                                              ; preds = %104
  %132 = load ptr, ptr %5, align 8, !tbaa !9
  %133 = getelementptr inbounds nuw %struct.archive_write, ptr %132, i32 0, i32 0
  call void (ptr, i32, ptr, ...) @archive_set_error(ptr noundef %133, i32 noundef 12, ptr noundef @.str.59)
  store i64 -30, ptr %4, align 8
  store i32 1, ptr %10, align 4
  br label %164

134:                                              ; preds = %104
  %135 = load ptr, ptr %5, align 8, !tbaa !9
  %136 = getelementptr inbounds nuw %struct.archive_write, ptr %135, i32 0, i32 15
  %137 = load ptr, ptr %136, align 8, !tbaa !120
  %138 = getelementptr inbounds nuw %struct.iso9660, ptr %137, i32 0, i32 33
  %139 = load i64, ptr %138, align 8, !tbaa !55
  %140 = add nsw i64 %139, 65536
  %141 = load ptr, ptr %5, align 8, !tbaa !9
  %142 = getelementptr inbounds nuw %struct.archive_write, ptr %141, i32 0, i32 15
  %143 = load ptr, ptr %142, align 8, !tbaa !120
  %144 = getelementptr inbounds nuw %struct.iso9660, ptr %143, i32 0, i32 31
  %145 = load i64, ptr %144, align 8, !tbaa !53
  %146 = sub i64 %140, %145
  %147 = load ptr, ptr %11, align 8, !tbaa !200
  %148 = getelementptr inbounds nuw %struct.content, ptr %147, i32 0, i32 0
  store i64 %146, ptr %148, align 8, !tbaa !248
  %149 = load ptr, ptr %11, align 8, !tbaa !200
  %150 = load ptr, ptr %8, align 8, !tbaa !22
  %151 = getelementptr inbounds nuw %struct.iso9660, ptr %150, i32 0, i32 2
  %152 = load ptr, ptr %151, align 8, !tbaa !43
  %153 = getelementptr inbounds nuw %struct.isofile, ptr %152, i32 0, i32 11
  %154 = load ptr, ptr %153, align 8, !tbaa !152
  %155 = getelementptr inbounds nuw %struct.content, ptr %154, i32 0, i32 4
  store ptr %149, ptr %155, align 8, !tbaa !201
  %156 = load ptr, ptr %11, align 8, !tbaa !200
  %157 = load ptr, ptr %8, align 8, !tbaa !22
  %158 = getelementptr inbounds nuw %struct.iso9660, ptr %157, i32 0, i32 2
  %159 = load ptr, ptr %158, align 8, !tbaa !43
  %160 = getelementptr inbounds nuw %struct.isofile, ptr %159, i32 0, i32 11
  store ptr %156, ptr %160, align 8, !tbaa !152
  %161 = load ptr, ptr %8, align 8, !tbaa !22
  %162 = getelementptr inbounds nuw %struct.iso9660, ptr %161, i32 0, i32 27
  %163 = getelementptr inbounds nuw %struct.anon.1, ptr %162, i32 0, i32 8
  store i64 0, ptr %163, align 8, !tbaa !229
  store i32 0, ptr %10, align 4
  br label %164

164:                                              ; preds = %134, %131, %103, %81, %73
  call void @llvm.lifetime.end.p0(i64 8, ptr %12) #13
  call void @llvm.lifetime.end.p0(i64 8, ptr %11) #13
  %165 = load i32, ptr %10, align 4
  switch i32 %165, label %213 [
    i32 0, label %166
  ]

166:                                              ; preds = %164
  br label %167

167:                                              ; preds = %166, %29, %23
  %168 = load ptr, ptr %8, align 8, !tbaa !22
  %169 = getelementptr inbounds nuw %struct.iso9660, ptr %168, i32 0, i32 27
  %170 = load i8, ptr %169, align 8
  %171 = and i8 %170, 1
  %172 = zext i8 %171 to i32
  %173 = icmp ne i32 %172, 0
  br i1 %173, label %174, label %178

174:                                              ; preds = %167
  %175 = load ptr, ptr %5, align 8, !tbaa !9
  %176 = load ptr, ptr %6, align 8, !tbaa !153
  %177 = load i64, ptr %9, align 8, !tbaa !154
  call void @zisofs_detect_magic(ptr noundef %175, ptr noundef %176, i64 noundef %177)
  br label %178

178:                                              ; preds = %174, %167
  %179 = load ptr, ptr %8, align 8, !tbaa !22
  %180 = getelementptr inbounds nuw %struct.iso9660, ptr %179, i32 0, i32 27
  %181 = load i8, ptr %180, align 8
  %182 = lshr i8 %181, 1
  %183 = and i8 %182, 1
  %184 = zext i8 %183 to i32
  %185 = icmp ne i32 %184, 0
  br i1 %185, label %186, label %194

186:                                              ; preds = %178
  %187 = load ptr, ptr %5, align 8, !tbaa !9
  %188 = load ptr, ptr %6, align 8, !tbaa !153
  %189 = load i64, ptr %9, align 8, !tbaa !154
  %190 = call i32 @zisofs_write_to_temp(ptr noundef %187, ptr noundef %188, i64 noundef %189)
  %191 = icmp ne i32 %190, 0
  br i1 %191, label %192, label %193

192:                                              ; preds = %186
  store i64 -30, ptr %4, align 8
  store i32 1, ptr %10, align 4
  br label %213

193:                                              ; preds = %186
  br label %211

194:                                              ; preds = %178
  %195 = load ptr, ptr %5, align 8, !tbaa !9
  %196 = load ptr, ptr %6, align 8, !tbaa !153
  %197 = load i64, ptr %9, align 8, !tbaa !154
  %198 = call i32 @wb_write_to_temp(ptr noundef %195, ptr noundef %196, i64 noundef %197)
  %199 = icmp ne i32 %198, 0
  br i1 %199, label %200, label %201

200:                                              ; preds = %194
  store i64 -30, ptr %4, align 8
  store i32 1, ptr %10, align 4
  br label %213

201:                                              ; preds = %194
  %202 = load i64, ptr %9, align 8, !tbaa !154
  %203 = load ptr, ptr %8, align 8, !tbaa !22
  %204 = getelementptr inbounds nuw %struct.iso9660, ptr %203, i32 0, i32 2
  %205 = load ptr, ptr %204, align 8, !tbaa !43
  %206 = getelementptr inbounds nuw %struct.isofile, ptr %205, i32 0, i32 11
  %207 = load ptr, ptr %206, align 8, !tbaa !152
  %208 = getelementptr inbounds nuw %struct.content, ptr %207, i32 0, i32 1
  %209 = load i64, ptr %208, align 8, !tbaa !159
  %210 = add i64 %209, %202
  store i64 %210, ptr %208, align 8, !tbaa !159
  br label %211

211:                                              ; preds = %201, %193
  %212 = load i64, ptr %7, align 8, !tbaa !154
  store i64 %212, ptr %4, align 8
  store i32 1, ptr %10, align 4
  br label %213

213:                                              ; preds = %211, %200, %192, %164, %20
  call void @llvm.lifetime.end.p0(i64 8, ptr %9) #13
  call void @llvm.lifetime.end.p0(i64 8, ptr %8) #13
  %214 = load i64, ptr %4, align 8
  ret i64 %214
}