; Function Attrs: nounwind uwtable
define internal fastcc noundef i64 @write_iso9660_data(ptr noundef %0, ptr noundef %1, i64 noundef %2) unnamed_addr #0 {
  %4 = getelementptr inbounds nuw i8, ptr %0, i64 248
  %5 = load ptr, ptr %4, align 8, !tbaa !69
  %6 = getelementptr inbounds nuw i8, ptr %5, i64 8
  %7 = load i32, ptr %6, align 8, !tbaa !35
  %8 = icmp slt i32 %7, 0
  br i1 %8, label %9, label %10

9:                                                ; preds = %3
  tail call void (ptr, i32, ptr, ...) @archive_set_error(ptr noundef nonnull %0, i32 noundef -1, ptr noundef nonnull @.str.46) #23
  br label %.thread

10:                                               ; preds = %3
  %11 = getelementptr inbounds nuw i8, ptr %5, i64 64
  %12 = load i32, ptr %11, align 8, !tbaa !103
  %.not = icmp eq i32 %12, 0
  br i1 %.not, label %72, label %13

13:                                               ; preds = %10
  %14 = getelementptr inbounds nuw i8, ptr %5, i64 16
  %15 = load ptr, ptr %14, align 8, !tbaa !36
  %16 = getelementptr inbounds nuw i8, ptr %15, i64 176
  %17 = load ptr, ptr %16, align 8, !tbaa !84
  %18 = getelementptr inbounds nuw i8, ptr %17, i64 8
  %19 = load i64, ptr %18, align 8, !tbaa !121
  %20 = add i64 %19, %2
  %21 = icmp ugt i64 %20, 4294965247
  br i1 %21, label %22, label %72

22:                                               ; preds = %13
  %23 = sub nsw i64 4294965248, %19
  %24 = getelementptr inbounds nuw i8, ptr %5, i64 472
  %25 = load i8, ptr %24, align 8
  %26 = and i8 %25, 1
  %.not60 = icmp eq i8 %26, 0
  br i1 %.not60, label %28, label %27

27:                                               ; preds = %22
  tail call fastcc void @zisofs_detect_magic(ptr nonnull %5, ptr noundef %1, i64 noundef %23)
  %.pre = load i8, ptr %24, align 8
  br label %28

28:                                               ; preds = %27, %22
  %29 = phi i8 [ %.pre, %27 ], [ %25, %22 ]
  %30 = and i8 %29, 2
  %.not61 = icmp eq i8 %30, 0
  br i1 %.not61, label %33, label %31

31:                                               ; preds = %28
  %32 = tail call fastcc i32 @zisofs_write_to_temp(ptr noundef nonnull %0, ptr noundef %1, i64 noundef %23)
  %.not63 = icmp eq i32 %32, 0
  br i1 %.not63, label %._crit_edge, label %.thread

._crit_edge:                                      ; preds = %31
  %.pre75 = load ptr, ptr %14, align 8, !tbaa !36
  %.phi.trans.insert = getelementptr inbounds nuw i8, ptr %.pre75, i64 176
  %.pre76 = load ptr, ptr %.phi.trans.insert, align 8, !tbaa !84
  %.phi.trans.insert77 = getelementptr inbounds nuw i8, ptr %.pre76, i64 8
  %.pre78 = load i64, ptr %.phi.trans.insert77, align 8, !tbaa !121
  br label %42

33:                                               ; preds = %28
  %34 = tail call fastcc i32 @wb_write_to_temp(ptr noundef nonnull %0, ptr noundef %1, i64 noundef %23)
  %.not62 = icmp eq i32 %34, 0
  br i1 %.not62, label %35, label %.thread

35:                                               ; preds = %33
  %36 = load ptr, ptr %14, align 8, !tbaa !36
  %37 = getelementptr inbounds nuw i8, ptr %36, i64 176
  %38 = load ptr, ptr %37, align 8, !tbaa !84
  %39 = getelementptr inbounds nuw i8, ptr %38, i64 8
  %40 = load i64, ptr %39, align 8, !tbaa !121
  %41 = add i64 %40, %23
  store i64 %41, ptr %39, align 8, !tbaa !121
  br label %42

42:                                               ; preds = %._crit_edge, %35
  %43 = phi i64 [ %.pre78, %._crit_edge ], [ %41, %35 ]
  %44 = phi ptr [ %.pre76, %._crit_edge ], [ %38, %35 ]
  %45 = phi ptr [ %.pre75, %._crit_edge ], [ %36, %35 ]
  %46 = srem i64 %43, 2048
  %.not.i = icmp eq i64 %46, 0
  br i1 %.not.i, label %wb_write_padding_to_temp.exit.thread, label %wb_write_padding_to_temp.exit

wb_write_padding_to_temp.exit:                    ; preds = %42
  %47 = sub nsw i64 2048, %46
  %48 = tail call fastcc i32 @write_null(ptr noundef nonnull %0, i64 noundef %47)
  %.not64 = icmp eq i32 %48, 0
  br i1 %.not64, label %wb_write_padding_to_temp.exit.wb_write_padding_to_temp.exit.thread_crit_edge, label %.thread

wb_write_padding_to_temp.exit.wb_write_padding_to_temp.exit.thread_crit_edge: ; preds = %wb_write_padding_to_temp.exit
  %.pre79 = load ptr, ptr %14, align 8, !tbaa !36
  %.phi.trans.insert80 = getelementptr inbounds nuw i8, ptr %.pre79, i64 176
  %.pre81 = load ptr, ptr %.phi.trans.insert80, align 8, !tbaa !84
  %.phi.trans.insert82 = getelementptr inbounds nuw i8, ptr %.pre81, i64 8
  %.pre83 = load i64, ptr %.phi.trans.insert82, align 8, !tbaa !121
  br label %wb_write_padding_to_temp.exit.thread

wb_write_padding_to_temp.exit.thread:             ; preds = %wb_write_padding_to_temp.exit.wb_write_padding_to_temp.exit.thread_crit_edge, %42
  %49 = phi i64 [ %.pre83, %wb_write_padding_to_temp.exit.wb_write_padding_to_temp.exit.thread_crit_edge ], [ %43, %42 ]
  %50 = phi ptr [ %.pre81, %wb_write_padding_to_temp.exit.wb_write_padding_to_temp.exit.thread_crit_edge ], [ %44, %42 ]
  %51 = phi ptr [ %.pre79, %wb_write_padding_to_temp.exit.wb_write_padding_to_temp.exit.thread_crit_edge ], [ %45, %42 ]
  %52 = add nsw i64 %49, 2047
  %53 = lshr i64 %52, 11
  %54 = trunc i64 %53 to i32
  %55 = getelementptr inbounds nuw i8, ptr %50, i64 16
  store i32 %54, ptr %55, align 8, !tbaa !122
  %56 = tail call noalias dereferenceable_or_null(32) ptr @calloc(i64 noundef 1, i64 noundef 32) #24
  %57 = icmp eq ptr %56, null
  br i1 %57, label %58, label %59

58:                                               ; preds = %wb_write_padding_to_temp.exit.thread
  tail call void (ptr, i32, ptr, ...) @archive_set_error(ptr noundef nonnull %0, i32 noundef 12, ptr noundef nonnull @.str.59) #23
  br label %.thread

59:                                               ; preds = %wb_write_padding_to_temp.exit.thread
  %60 = getelementptr inbounds nuw i8, ptr %51, i64 176
  %61 = getelementptr inbounds nuw i8, ptr %1, i64 %23
  %62 = sub i64 %2, %23
  %63 = load ptr, ptr %4, align 8, !tbaa !69
  %64 = getelementptr inbounds nuw i8, ptr %63, i64 66288
  %65 = load i64, ptr %64, align 8, !tbaa !108
  %66 = add nsw i64 %65, 65536
  %67 = getelementptr inbounds nuw i8, ptr %63, i64 66272
  %68 = load i64, ptr %67, align 8, !tbaa !50
  %69 = sub i64 %66, %68
  store i64 %69, ptr %56, align 8, !tbaa !255
  %70 = getelementptr inbounds nuw i8, ptr %50, i64 24
  store ptr %56, ptr %70, align 8, !tbaa !86
  store ptr %56, ptr %60, align 8, !tbaa !84
  %71 = getelementptr inbounds nuw i8, ptr %5, i64 576
  store i64 0, ptr %71, align 8, !tbaa !248
  br label %72

72:                                               ; preds = %59, %13, %10
  %.val69 = phi ptr [ %63, %59 ], [ %5, %13 ], [ %5, %10 ]
  %.057 = phi i64 [ %62, %59 ], [ %2, %13 ], [ %2, %10 ]
  %.054 = phi ptr [ %61, %59 ], [ %1, %13 ], [ %1, %10 ]
  %73 = getelementptr inbounds nuw i8, ptr %5, i64 472
  %74 = load i8, ptr %73, align 8
  %75 = and i8 %74, 1
  %.not65 = icmp eq i8 %75, 0
  br i1 %.not65, label %77, label %76

76:                                               ; preds = %72
  tail call fastcc void @zisofs_detect_magic(ptr nonnull %.val69, ptr noundef %.054, i64 noundef %.057)
  %.pre85 = load i8, ptr %73, align 8
  br label %77

77:                                               ; preds = %76, %72
  %78 = phi i8 [ %.pre85, %76 ], [ %74, %72 ]
  %79 = and i8 %78, 2
  %.not66 = icmp eq i8 %79, 0
  br i1 %.not66, label %82, label %80

80:                                               ; preds = %77
  %81 = tail call fastcc i32 @zisofs_write_to_temp(ptr noundef nonnull %0, ptr noundef %.054, i64 noundef %.057)
  %.not68 = icmp eq i32 %81, 0
  br i1 %.not68, label %92, label %.thread

82:                                               ; preds = %77
  %83 = tail call fastcc i32 @wb_write_to_temp(ptr noundef nonnull %0, ptr noundef %.054, i64 noundef %.057)
  %.not67 = icmp eq i32 %83, 0
  br i1 %.not67, label %84, label %.thread

84:                                               ; preds = %82
  %85 = getelementptr inbounds nuw i8, ptr %5, i64 16
  %86 = load ptr, ptr %85, align 8, !tbaa !36
  %87 = getelementptr inbounds nuw i8, ptr %86, i64 176
  %88 = load ptr, ptr %87, align 8, !tbaa !84
  %89 = getelementptr inbounds nuw i8, ptr %88, i64 8
  %90 = load i64, ptr %89, align 8, !tbaa !121
  %91 = add i64 %90, %.057
  store i64 %91, ptr %89, align 8, !tbaa !121
  br label %92

92:                                               ; preds = %80, %84
  br label %.thread

.thread:                                          ; preds = %wb_write_padding_to_temp.exit, %33, %31, %58, %82, %80, %92, %9
  %.0 = phi i64 [ -30, %9 ], [ %2, %92 ], [ -30, %80 ], [ -30, %82 ], [ -30, %58 ], [ -30, %31 ], [ -30, %33 ], [ -30, %wb_write_padding_to_temp.exit ]
  ret i64 %.0
}